target datalayout = "e-m:e-p270:32:32-p271:32:32-p272:64:64-i64:64-i128:128-f80:128-n8:16:32:64-S128"
target triple = "x86_64-pc-linux-gnu"

%"class.tbb::detail::r1::affinity_helper" = type <{ ptr, i32, [4 x i8] }>

@_ZN3tbb6detail2r1L9num_masksE = internal global i32 0, align 4
@.str = private unnamed_addr constant [27 x i8] c"setaffinity syscall failed\00", align 1

; Function Attrs: mustprogress sspstrong uwtable
define internal void @_ZN3tbb6detail2r1L24set_thread_affinity_maskEmPK9cpu_set_t(i64 noundef %0, ptr noundef %1) #2 {
  %3 = alloca i64, align 8
  %4 = alloca ptr, align 8
  store i64 %0, ptr %3, align 8, !tbaa !14
  store ptr %1, ptr %4, align 8, !tbaa !3
  %5 = load i64, ptr %3, align 8, !tbaa !14
  %6 = load ptr, ptr %4, align 8, !tbaa !3
  %7 = call i32 @sched_setaffinity(i32 noundef 0, i64 noundef %5, ptr noundef %6) #13
  %8 = icmp ne i32 %7, 0
  br i1 %8, label %9, label %10

9:                                                ; preds = %2
  call void (ptr, ...) @_ZN3tbb6detail2r115runtime_warningEPKcz(ptr noundef @.str)
  br label %10

10:                                               ; preds = %9, %2
  ret void
}

; Function Attrs: mustprogress nounwind sspstrong uwtable
define void @_ZN3tbb6detail2r115affinity_helperD2Ev(ptr noundef nonnull align 8 dereferenceable(12) %0) unnamed_addr #0 align 2 personality ptr @__gxx_personality_v0 {
  %2 = alloca ptr, align 8
  store ptr %0, ptr %2, align 8, !tbaa !7
  %3 = load ptr, ptr %2, align 8
  %4 = getelementptr inbounds nuw %"class.tbb::detail::r1::affinity_helper", ptr %3, i32 0, i32 0
  %5 = load ptr, ptr %4, align 8, !tbaa !9
  %6 = icmp ne ptr %5, null
  br i1 %6, label %7, label %24

7:                                                ; preds = %1
  %8 = getelementptr inbounds nuw %"class.tbb::detail::r1::affinity_helper", ptr %3, i32 0, i32 1
  %9 = load i32, ptr %8, align 8, !tbaa !12
  %10 = icmp ne i32 %9, 0
  br i1 %10, label %11, label %18

11:                                               ; preds = %7
  %12 = load i32, ptr @_ZN3tbb6detail2r1L9num_masksE, align 4, !tbaa !13
  %13 = sext i32 %12 to i64
  %14 = mul i64 128, %13
  %15 = getelementptr inbounds nuw %"class.tbb::detail::r1::affinity_helper", ptr %3, i32 0, i32 0
  %16 = load ptr, ptr %15, align 8, !tbaa !9
  invoke void @_ZN3tbb6detail2r1L24set_thread_affinity_maskEmPK9cpu_set_t(i64 noundef %14, ptr noundef %16)
          to label %17 unwind label %25

17:                                               ; preds = %11
  br label %18

18:                                               ; preds = %17, %7
  %19 = getelementptr inbounds nuw %"class.tbb::detail::r1::affinity_helper", ptr %3, i32 0, i32 0
  %20 = load ptr, ptr %19, align 8, !tbaa !9
  %21 = icmp eq ptr %20, null
  br i1 %21, label %23, label %22

22:                                               ; preds = %18
  call void @_ZdaPv(ptr noundef %20) #14
  br label %23

23:                                               ; preds = %22, %18
  br label %24

24:                                               ; preds = %23, %1
  ret void

25:                                               ; preds = %11
  %26 = landingpad { ptr, i32 }
          catch ptr null
  %27 = extractvalue { ptr, i32 } %26, 0
  call void @__clang_call_terminate(ptr %27) #15
  unreachable
}