; Function Attrs: mustprogress nounwind sspstrong uwtable
define void @_ZN3tbb6detail2r115affinity_helperD2Ev(ptr noundef nonnull readonly align 8 captures(none) dereferenceable(12) %0) unnamed_addr #0 align 2 personality ptr @__gxx_personality_v0 {
  %2 = load ptr, ptr %0, align 8, !tbaa !7
  %.not = icmp eq ptr %2, null
  br i1 %.not, label %15, label %3

3:                                                ; preds = %1
  %4 = getelementptr inbounds nuw i8, ptr %0, i64 8
  %5 = load i32, ptr %4, align 8, !tbaa !10
  %.not2 = icmp eq i32 %5, 0
  br i1 %.not2, label %_ZN3tbb6detail2r1L24set_thread_affinity_maskEmPK9cpu_set_t.exit, label %6

6:                                                ; preds = %3
  %7 = load i32, ptr @_ZN3tbb6detail2r1L9num_masksE, align 4, !tbaa !11
  %8 = sext i32 %7 to i64
  %9 = shl nsw i64 %8, 7
  %10 = tail call i32 @sched_setaffinity(i32 noundef 0, i64 noundef range(i64 -274877906944, 274877906817) %9, ptr noundef nonnull %2) #11
  %.not.i = icmp eq i32 %10, 0
  br i1 %.not.i, label %_ZN3tbb6detail2r1L24set_thread_affinity_maskEmPK9cpu_set_t.exit, label %11

11:                                               ; preds = %6
  invoke void (ptr, ...) @_ZN3tbb6detail2r115runtime_warningEPKcz(ptr noundef nonnull @.str)
          to label %_ZN3tbb6detail2r1L24set_thread_affinity_maskEmPK9cpu_set_t.exit unwind label %16

_ZN3tbb6detail2r1L24set_thread_affinity_maskEmPK9cpu_set_t.exit: ; preds = %6, %11, %3
  %12 = load ptr, ptr %0, align 8, !tbaa !7
  %13 = icmp eq ptr %12, null
  br i1 %13, label %15, label %14

14:                                               ; preds = %_ZN3tbb6detail2r1L24set_thread_affinity_maskEmPK9cpu_set_t.exit
  tail call void @_ZdaPv(ptr noundef nonnull %12) #14
  br label %15

15:                                               ; preds = %_ZN3tbb6detail2r1L24set_thread_affinity_maskEmPK9cpu_set_t.exit, %14, %1
  ret void

16:                                               ; preds = %11
  %17 = landingpad { ptr, i32 }
          catch ptr null
  %18 = extractvalue { ptr, i32 } %17, 0
  tail call void @__clang_call_terminate(ptr %18) #15
  unreachable
}